Certificate:
    Data:
        Version: 3 (0x2)
        Serial Number: 268435667 (0x100000d3)
        Signature Algorithm: sha256WithRSAEncryption
        Issuer: C=DE, ST=Hessen, O=privacyidea, CN=CA001
        Validity
            Not Before: Jan  3 10:31:58 2024 GMT
            Not After : Jan  2 10:31:58 2025 GMT
        Subject: C=DE, ST=Hessen, O=privacyidea, CN=requester.localdomain
        Subject Public Key Info:
            Public Key Algorithm: rsaEncryption
                RSA Public-Key: (2048 bit)
                Modulus:
                    00:cd:be:14:4f:fa:ce:01:3f:42:22:1b:1d:9c:af:
                    dd:92:d2:7f:db:6c:b7:3e:39:43:43:6b:13:03:f1:
                    05:f4:07:74:bc:76:69:28:0b:af:19:8e:d7:fc:e3:
                    cd:c6:58:f2:ca:7f:08:6d:53:fc:07:02:44:24:c6:
                    b4:34:4c:8c:04:fe:33:0e:40:e2:20:ba:02:73:5a:
                    f7:f5:4f:63:6e:cc:c6:b6:df:54:1d:37:39:7d:51:
                    36:26:5f:bd:dc:3f:a8:8b:6b:a2:ae:b6:9d:d6:21:
                    e7:df:41:b8:7a:28:2a:68:48:ca:a8:2d:ed:e1:e9:
                    46:5e:5a:72:6d:b4:84:38:87:91:fd:94:11:0b:28:
                    84:c6:c2:2f:2a:fb:01:f9:36:7a:09:75:d1:33:88:
                    3c:73:41:5b:c8:bf:94:89:70:a1:f0:c0:b9:2e:50:
                    53:1e:b1:17:64:69:f4:2d:81:e0:a9:0d:0e:32:e9:
                    ba:55:8a:85:f1:1b:6f:49:79:b4:7f:88:c3:0d:3e:
                    54:88:9b:3d:1f:38:8c:04:f3:ee:6a:63:2b:f5:c6:
                    db:b4:83:aa:c4:78:41:3a:7d:4b:e1:c8:3e:71:ca:
                    1b:61:59:ea:c6:c4:ca:32:5e:c9:e9:bf:12:29:e6:
                    c6:c3:63:fe:a0:55:da:7a:f1:60:98:4d:26:ed:fa:
                    70:2d
                Exponent: 65537 (0x10001)
        X509v3 extensions:
            X509v3 Key Usage: 
                Digital Signature, Key Encipherment
            X509v3 Basic Constraints: 
                CA:FALSE
            Netscape Cert Type: 
                SSL Server
            Netscape Comment: 
                OpenSSL Generated Server Certificate
            X509v3 Subject Key Identifier: 
                53:3F:ED:5D:09:07:B3:65:7B:AB:45:C9:24:5B:09:77:80:0A:96:ED
            X509v3 Authority Key Identifier: 
                keyid:F4:A7:C0:CC:91:46:AF:64:F3:91:F2:27:F8:C8:B2:6F:8A:87:32:73
                DirName:/C=DE/ST=Hessen/O=privacyidea/CN=CA001
                serial:FB:C8:EB:AC:83:CD:12:07

            X509v3 Extended Key Usage: 
                TLS Web Server Authentication
    Signature Algorithm: sha256WithRSAEncryption
         ae:e9:9e:96:a7:53:fc:f9:5f:e3:35:a0:db:fd:55:5f:fd:58:
         7f:23:e4:fc:a9:c8:ff:94:bf:c1:71:bd:aa:ed:87:97:bb:54:
         ba:ae:9c:76:98:cb:4b:6d:3e:6b:1e:ed:ac:b2:2b:35:f5:4a:
         e0:1f:29:29:01:bb:52:e6:11:0f:ae:00:6c:b7:1e:c4:b9:74:
         9c:08:c5:e7:6c:35:0b:48:53:fa:8e:7c:ab:1b:0f:47:5a:1b:
         a5:3b:4e:03:6b:03:65:53:36:a5:87:3c:97:95:17:c5:27:80:
         cc:e5:1b:eb:a1:b4:f2:b5:01:1a:dd:d4:6e:d9:a4:5a:03:11:
         a2:ab:aa:39:12:85:18:51:2f:65:27:49:f2:83:20:8c:41:60:
         81:73:f0:f5:63:ab:80:fd:ea:fe:71:02:cb:23:d0:e0:cb:32:
         26:6c:47:6d:6e:f3:4f:43:ca:da:cb:e7:ab:fe:35:60:cd:92:
         fb:e7:0f:41:3a:c1:43:73:1d:9a:5f:82:b6:e5:c1:b7:00:c2:
         8a:5c:82:2a:b2:7f:db:4f:c9:27:00:9f:c7:fb:08:6d:1d:a7:
         d8:09:f8:a3:81:88:c2:44:81:94:fd:c5:93:df:01:81:93:ed:
         81:0f:ad:27:32:af:ed:a4:4c:89:d7:d8:b6:91:48:31:51:83:
         b6:af:a9:98
-----BEGIN CERTIFICATE-----
MIIEJjCCAw6gAwIBAgIEEAAA0zANBgkqhkiG9w0BAQsFADBEMQswCQYDVQQGEwJE
RTEPMA0GA1UECAwGSGVzc2VuMRQwEgYDVQQKDAtwcml2YWN5aWRlYTEOMAwGA1UE
AwwFQ0EwMDEwHhcNMjQwMTAzMTAzMTU4WhcNMjUwMTAyMTAzMTU4WjBUMQswCQYD
VQQGEwJERTEPMA0GA1UECAwGSGVzc2VuMRQwEgYDVQQKDAtwcml2YWN5aWRlYTEe
MBwGA1UEAwwVcmVxdWVzdGVyLmxvY2FsZG9tYWluMIIBIjANBgkqhkiG9w0BAQEF
AAOCAQ8AMIIBCgKCAQEAzb4UT/rOAT9CIhsdnK/dktJ/22y3PjlDQ2sTA/EF9Ad0
vHZpKAuvGY7X/OPNxljyyn8IbVP8BwJEJMa0NEyMBP4zDkDiILoCc1r39U9jbszG
tt9UHTc5fVE2Jl+93D+oi2uirrad1iHn30G4eigqaEjKqC3t4elGXlpybbSEOIeR
/ZQRCyiExsIvKvsB+TZ6CXXRM4g8c0FbyL+UiXCh8MC5LlBTHrEXZGn0LYHgqQ0O
Mum6VYqF8RtvSXm0f4jDDT5UiJs9HziMBPPuamMr9cbbtIOqxHhBOn1L4cg+ccob
YVnqxsTKMl7J6b8SKebGw2P+oFXaevFgmE0m7fpwLQIDAQABo4IBDjCCAQowCwYD
VR0PBAQDAgWgMAkGA1UdEwQCMAAwEQYJYIZIAYb4QgEBBAQDAgZAMDMGCWCGSAGG
+EIBDQQmFiRPcGVuU1NMIEdlbmVyYXRlZCBTZXJ2ZXIgQ2VydGlmaWNhdGUwHQYD
VR0OBBYEFFM/7V0JB7Nle6tFySRbCXeACpbtMHQGA1UdIwRtMGuAFPSnwMyRRq9k
85HyJ/jIsm+KhzJzoUikRjBEMQswCQYDVQQGEwJERTEPMA0GA1UECAwGSGVzc2Vu
MRQwEgYDVQQKDAtwcml2YWN5aWRlYTEOMAwGA1UEAwwFQ0EwMDGCCQD7yOusg80S
BzATBgNVHSUEDDAKBggrBgEFBQcDATANBgkqhkiG9w0BAQsFAAOCAQEArumelqdT
/Plf4zWg2/1VX/1YfyPk/KnI/5S/wXG9qu2Hl7tUuq6cdpjLS20+ax7trLIrNfVK
4B8pKQG7UuYRD64AbLcexLl0nAjF52w1C0hT+o58qxsPR1obpTtOA2sDZVM2pYc8
l5UXxSeAzOUb66G08rUBGt3UbtmkWgMRoquqORKFGFEvZSdJ8oMgjEFggXPw9WOr
gP3q/nECyyPQ4MsyJmxHbW7zT0PK2svnq/41YM2S++cPQTrBQ3Mdml+CtuXBtwDC
ilyCKrJ/20/JJwCfx/sIbR2n2An4o4GIwkSBlP3Fk98BgZPtgQ+tJzKv7aRMidfY
tpFIMVGDtq+pmA==
-----END CERTIFICATE-----
