Certificate:
    Data:
        Version: 3 (0x2)
        Serial Number: 268435668 (0x100000d4)
        Signature Algorithm: sha256WithRSAEncryption
        Issuer: C=DE, ST=Hessen, O=privacyidea, CN=CA001
        Validity
            Not Before: Jan  3 10:31:58 2024 GMT
            Not After : Jan  2 10:31:58 2025 GMT
        Subject: CN=cn=cornelius
        Subject Public Key Info:
            Public Key Algorithm: rsaEncryption
                RSA Public-Key: (2048 bit)
                Modulus:
                    00:ce:a4:39:30:25:73:e4:9d:e6:37:3b:85:59:83:
                    ef:a3:6e:f9:83:b9:f7:48:b0:0b:d5:e8:05:40:61:
                    cd:c5:5a:bc:11:2f:5b:4e:d0:4f:b8:d0:e8:7f:05:
                    ab:ad:24:0b:90:d4:3f:60:ec:15:b6:4e:be:8e:d9:
                    26:ab:f2:2f:7f:35:c2:a6:a1:bc:52:3a:d9:88:fb:
                    b3:fa:71:20:b9:51:0e:f8:af:0d:16:be:bd:5d:b9:
                    ab:30:d5:ac:6b:3c:bc:ee:28:4a:4f:6f:d4:09:15:
                    f7:98:af:77:db:36:15:2e:1e:ee:0f:d0:d9:60:ad:
                    db:b9:c4:3f:c6:25:32:f9:e3:e9:50:b8:ec:84:a0:
                    c4:d2:9c:fd:ce:25:80:85:7e:3a:ad:4c:a7:40:1b:
                    0a:58:18:9f:c2:5e:36:e1:d1:44:e9:46:b6:dc:b4:
                    28:a2:ec:ed:02:f7:25:79:e1:86:8e:69:67:52:ee:
                    82:21:b7:84:2d:cc:e7:a8:39:57:7d:a3:1e:e9:50:
                    63:77:29:ab:e4:a5:ff:dc:ee:4c:4b:5e:08:2b:62:
                    08:2d:75:b8:26:6c:93:eb:f5:45:ea:cd:83:58:53:
                    15:46:e6:6b:43:c1:2f:d9:88:4b:3d:d5:fd:0c:ff:
                    51:52:ed:54:fb:27:2d:59:ef:4c:50:ce:71:cd:eb:
                    5a:99
                Exponent: 65537 (0x10001)
        X509v3 extensions:
            X509v3 Key Usage: 
                Digital Signature, Key Encipherment
            X509v3 Basic Constraints: 
                CA:FALSE
            Netscape Cert Type: 
                SSL Server
            Netscape Comment: 
                OpenSSL Generated Server Certificate
            X509v3 Subject Key Identifier: 
                0E:D5:BA:4E:7D:92:57:15:FD:61:4E:34:5B:E9:62:D0:20:1C:7D:08
            X509v3 Authority Key Identifier: 
                keyid:F4:A7:C0:CC:91:46:AF:64:F3:91:F2:27:F8:C8:B2:6F:8A:87:32:73
                DirName:/C=DE/ST=Hessen/O=privacyidea/CN=CA001
                serial:FB:C8:EB:AC:83:CD:12:07

            X509v3 Extended Key Usage: 
                TLS Web Server Authentication
    Signature Algorithm: sha256WithRSAEncryption
         46:53:c9:bb:88:82:e7:c5:fc:7d:42:9f:99:10:0f:96:04:30:
         4c:c7:ff:97:0d:b8:9e:08:25:43:dc:bb:32:05:54:e9:8a:c5:
         77:df:1f:91:ef:53:30:0c:8d:19:1e:3f:d4:69:5e:17:7c:13:
         e1:20:1a:7d:4b:d3:90:64:fb:f6:b9:a1:be:70:cd:c7:67:7e:
         7d:29:57:30:37:25:c7:05:61:ef:0d:ed:da:80:f5:2e:7a:d5:
         8b:4b:8b:68:f6:c9:5c:5f:16:47:8b:5f:97:05:4e:fb:2f:85:
         00:97:24:7a:fd:40:23:29:ca:82:7d:53:a8:b7:2a:5e:79:d4:
         2b:3c:dd:3f:90:8c:fe:da:e4:12:1f:d1:7f:28:2d:52:48:08:
         42:04:e0:3e:28:63:8b:25:7f:75:45:c6:84:98:fe:86:57:b4:
         27:77:d5:f6:01:c2:fe:12:63:61:19:b5:83:1f:16:a5:04:41:
         29:94:a9:3b:cf:46:e0:0b:4f:ab:47:7f:db:84:fc:37:ea:9a:
         22:22:a8:35:a1:15:ae:e2:24:ab:c1:79:6b:92:12:c8:1a:78:
         03:31:70:fc:83:b7:8a:6d:90:7f:e9:a7:26:d0:55:27:a4:94:
         ec:67:68:77:32:e2:26:ae:91:de:ab:57:84:17:51:57:ce:7d:
         4c:b8:cc:a3
-----BEGIN CERTIFICATE-----
MIID6TCCAtGgAwIBAgIEEAAA1DANBgkqhkiG9w0BAQsFADBEMQswCQYDVQQGEwJE
RTEPMA0GA1UECAwGSGVzc2VuMRQwEgYDVQQKDAtwcml2YWN5aWRlYTEOMAwGA1UE
AwwFQ0EwMDEwHhcNMjQwMTAzMTAzMTU4WhcNMjUwMTAyMTAzMTU4WjAXMRUwEwYD
VQQDDAxjbj1jb3JuZWxpdXMwggEiMA0GCSqGSIb3DQEBAQUAA4IBDwAwggEKAoIB
AQDOpDkwJXPkneY3O4VZg++jbvmDufdIsAvV6AVAYc3FWrwRL1tO0E+40Oh/Baut
JAuQ1D9g7BW2Tr6O2Sar8i9/NcKmobxSOtmI+7P6cSC5UQ74rw0Wvr1duasw1axr
PLzuKEpPb9QJFfeYr3fbNhUuHu4P0Nlgrdu5xD/GJTL54+lQuOyEoMTSnP3OJYCF
fjqtTKdAGwpYGJ/CXjbh0UTpRrbctCii7O0C9yV54YaOaWdS7oIht4QtzOeoOVd9
ox7pUGN3Kavkpf/c7kxLXggrYggtdbgmbJPr9UXqzYNYUxVG5mtDwS/ZiEs91f0M
/1FS7VT7Jy1Z70xQznHN61qZAgMBAAGjggEOMIIBCjALBgNVHQ8EBAMCBaAwCQYD
VR0TBAIwADARBglghkgBhvhCAQEEBAMCBkAwMwYJYIZIAYb4QgENBCYWJE9wZW5T
U0wgR2VuZXJhdGVkIFNlcnZlciBDZXJ0aWZpY2F0ZTAdBgNVHQ4EFgQUDtW6Tn2S
VxX9YU40W+li0CAcfQgwdAYDVR0jBG0wa4AU9KfAzJFGr2TzkfIn+Miyb4qHMnOh
SKRGMEQxCzAJBgNVBAYTAkRFMQ8wDQYDVQQIDAZIZXNzZW4xFDASBgNVBAoMC3By
aXZhY3lpZGVhMQ4wDAYDVQQDDAVDQTAwMYIJAPvI66yDzRIHMBMGA1UdJQQMMAoG
CCsGAQUFBwMBMA0GCSqGSIb3DQEBCwUAA4IBAQBGU8m7iILnxfx9Qp+ZEA+WBDBM
x/+XDbieCCVD3LsyBVTpisV33x+R71MwDI0ZHj/UaV4XfBPhIBp9S9OQZPv2uaG+
cM3HZ359KVcwNyXHBWHvDe3agPUuetWLS4to9slcXxZHi1+XBU77L4UAlyR6/UAj
KcqCfVOotypeedQrPN0/kIz+2uQSH9F/KC1SSAhCBOA+KGOLJX91RcaEmP6GV7Qn
d9X2AcL+EmNhGbWDHxalBEEplKk7z0bgC0+rR3/bhPw36poiIqg1oRWu4iSrwXlr
khLIGngDMXD8g7eKbZB/6acm0FUnpJTsZ2h3MuImrpHeq1eEF1FXzn1MuMyj
-----END CERTIFICATE-----
