Certificate:
    Data:
        Version: 3 (0x2)
        Serial Number: 268435669 (0x100000d5)
        Signature Algorithm: sha256WithRSAEncryption
        Issuer: C=DE, ST=Hessen, O=privacyidea, CN=CA001
        Validity
            Not Before: Jan  3 10:31:58 2024 GMT
            Not After : Jan  2 10:31:58 2025 GMT
        Subject: CN=cornelius
        Subject Public Key Info:
            Public Key Algorithm: rsaEncryption
                RSA Public-Key: (2048 bit)
                Modulus:
                    00:86:ed:7d:ed:b1:b5:bf:64:38:54:39:0d:30:7a:
                    48:fa:67:56:7d:49:9c:84:5e:6e:23:0b:36:f1:86:
                    b4:1a:92:fd:85:04:7d:9f:e7:11:22:cf:79:e1:9a:
                    ce:7c:8d:7c:4d:48:8f:94:db:13:c1:0c:72:5b:be:
                    22:a8:bb:8a:a0:cc:16:33:3d:7b:68:b5:a1:1d:8d:
                    db:5c:6a:f7:89:a2:59:c5:e5:b1:21:b4:0d:8b:8c:
                    86:c2:e6:83:f4:84:a4:47:31:c2:27:52:12:24:0a:
                    4b:2e:56:f3:32:5b:c1:f0:d7:fa:a8:86:a9:87:c9:
                    04:ad:f7:59:e0:f6:15:1f:14:79:a5:9b:c6:ac:2d:
                    20:11:31:88:72:8d:e3:6b:6b:35:22:3c:66:67:6f:
                    fd:1e:5e:05:56:7e:d8:48:8b:aa:33:9e:59:9b:0e:
                    03:c3:8d:37:c2:6d:c5:65:9d:d2:6e:f3:90:4a:7c:
                    7e:bc:7f:bf:9c:94:17:cc:06:33:ea:5b:d3:91:01:
                    0f:16:01:b5:61:b7:14:3e:e2:90:18:e9:f2:53:20:
                    35:21:21:60:7a:31:6c:34:5a:08:86:1a:0d:76:0e:
                    38:d4:de:59:c3:2b:e4:93:b4:32:71:3b:47:af:15:
                    06:a5:83:fc:93:bd:bb:61:c3:fd:22:0f:f9:d6:4b:
                    56:93
                Exponent: 65537 (0x10001)
        X509v3 extensions:
            X509v3 Key Usage: 
                Digital Signature, Key Encipherment
            X509v3 Basic Constraints: 
                CA:FALSE
            Netscape Cert Type: 
                SSL Server
            Netscape Comment: 
                OpenSSL Generated Server Certificate
            X509v3 Subject Key Identifier: 
                6F:FF:A3:C3:29:CE:BB:5C:43:CF:B1:32:B3:3A:51:FB:B6:A9:B6:D6
            X509v3 Authority Key Identifier: 
                keyid:F4:A7:C0:CC:91:46:AF:64:F3:91:F2:27:F8:C8:B2:6F:8A:87:32:73
                DirName:/C=DE/ST=Hessen/O=privacyidea/CN=CA001
                serial:FB:C8:EB:AC:83:CD:12:07

            X509v3 Extended Key Usage: 
                TLS Web Server Authentication
    Signature Algorithm: sha256WithRSAEncryption
         55:7a:2c:02:df:8b:a2:89:80:ad:9d:2c:34:e9:cb:b3:35:39:
         28:4e:13:c0:80:cf:f6:cd:ad:3b:97:34:14:b0:9e:f5:0a:00:
         46:be:4d:1b:ab:dd:86:1c:ca:37:ed:08:34:09:e2:49:a7:6e:
         4e:82:d6:06:04:29:29:67:3d:c8:40:d4:89:5d:74:9b:ed:48:
         52:dd:93:b2:7e:b7:b2:90:50:55:1f:ca:f9:c9:21:8a:d0:22:
         8b:c3:d6:e8:c7:f5:f8:84:46:e0:d9:83:05:fe:d2:25:1d:45:
         41:74:0f:0b:be:ac:f4:37:2b:11:30:29:14:b7:44:cb:6c:15:
         38:eb:73:b3:0b:95:84:e4:03:c5:96:6d:8f:38:cb:f1:22:3f:
         fd:68:f9:cf:2c:51:ed:42:0a:55:c8:55:0d:fb:2b:a6:2e:59:
         62:c4:8f:bf:50:b9:eb:07:d2:8d:90:f6:e0:87:73:14:85:8a:
         01:70:b3:72:85:dc:99:e5:d1:06:c7:ca:65:f9:e3:29:24:ea:
         5d:f6:59:c8:93:95:5d:a7:25:80:66:ab:80:a3:6b:7c:64:1c:
         ac:a5:4b:be:6d:ae:90:c4:04:c5:64:9a:8c:6b:01:b0:1d:f3:
         3d:f1:6f:19:13:2e:59:8c:ec:68:68:3e:66:d3:1d:1d:68:d8:
         6a:ee:14:c7
-----BEGIN CERTIFICATE-----
MIID5jCCAs6gAwIBAgIEEAAA1TANBgkqhkiG9w0BAQsFADBEMQswCQYDVQQGEwJE
RTEPMA0GA1UECAwGSGVzc2VuMRQwEgYDVQQKDAtwcml2YWN5aWRlYTEOMAwGA1UE
AwwFQ0EwMDEwHhcNMjQwMTAzMTAzMTU4WhcNMjUwMTAyMTAzMTU4WjAUMRIwEAYD
VQQDDAljb3JuZWxpdXMwggEiMA0GCSqGSIb3DQEBAQUAA4IBDwAwggEKAoIBAQCG
7X3tsbW/ZDhUOQ0wekj6Z1Z9SZyEXm4jCzbxhrQakv2FBH2f5xEiz3nhms58jXxN
SI+U2xPBDHJbviKou4qgzBYzPXtotaEdjdtcaveJolnF5bEhtA2LjIbC5oP0hKRH
McInUhIkCksuVvMyW8Hw1/qohqmHyQSt91ng9hUfFHmlm8asLSARMYhyjeNrazUi
PGZnb/0eXgVWfthIi6oznlmbDgPDjTfCbcVlndJu85BKfH68f7+clBfMBjPqW9OR
AQ8WAbVhtxQ+4pAY6fJTIDUhIWB6MWw0WgiGGg12DjjU3lnDK+STtDJxO0evFQal
g/yTvbthw/0iD/nWS1aTAgMBAAGjggEOMIIBCjALBgNVHQ8EBAMCBaAwCQYDVR0T
BAIwADARBglghkgBhvhCAQEEBAMCBkAwMwYJYIZIAYb4QgENBCYWJE9wZW5TU0wg
R2VuZXJhdGVkIFNlcnZlciBDZXJ0aWZpY2F0ZTAdBgNVHQ4EFgQUb/+jwynOu1xD
z7EyszpR+7apttYwdAYDVR0jBG0wa4AU9KfAzJFGr2TzkfIn+Miyb4qHMnOhSKRG
MEQxCzAJBgNVBAYTAkRFMQ8wDQYDVQQIDAZIZXNzZW4xFDASBgNVBAoMC3ByaXZh
Y3lpZGVhMQ4wDAYDVQQDDAVDQTAwMYIJAPvI66yDzRIHMBMGA1UdJQQMMAoGCCsG
AQUFBwMBMA0GCSqGSIb3DQEBCwUAA4IBAQBVeiwC34uiiYCtnSw06cuzNTkoThPA
gM/2za07lzQUsJ71CgBGvk0bq92GHMo37Qg0CeJJp25OgtYGBCkpZz3IQNSJXXSb
7UhS3ZOyfreykFBVH8r5ySGK0CKLw9box/X4hEbg2YMF/tIlHUVBdA8Lvqz0NysR
MCkUt0TLbBU463OzC5WE5APFlm2POMvxIj/9aPnPLFHtQgpVyFUN+yumLllixI+/
ULnrB9KNkPbgh3MUhYoBcLNyhdyZ5dEGx8pl+eMpJOpd9lnIk5VdpyWAZquAo2t8
ZByspUu+ba6QxATFZJqMawGwHfM98W8ZEy5ZjOxoaD5m0x0daNhq7hTH
-----END CERTIFICATE-----
