Certificate:
    Data:
        Version: 3 (0x2)
        Serial Number: 268435670 (0x100000d6)
        Signature Algorithm: sha256WithRSAEncryption
        Issuer: C=DE, ST=Hessen, O=privacyidea, CN=CA001
        Validity
            Not Before: Jan  3 10:31:58 2024 GMT
            Not After : Jan  2 10:31:58 2025 GMT
        Subject: OU=realm1, CN=cornelius/emailAddress=user@localhost.localdomain
        Subject Public Key Info:
            Public Key Algorithm: rsaEncryption
                RSA Public-Key: (2048 bit)
                Modulus:
                    00:a1:e6:ea:e4:e8:f8:0b:72:0e:4f:15:cd:0b:33:
                    57:87:d1:a1:73:ff:cf:c5:94:d2:b7:2a:2c:64:87:
                    d1:76:0a:75:d5:22:87:cc:b3:ba:10:8b:9c:89:c2:
                    82:c8:78:d5:50:b7:53:ea:3e:19:b1:f3:67:86:ad:
                    96:0f:80:64:06:8b:41:1e:15:2c:aa:80:d0:7b:67:
                    4a:ff:c6:91:9a:68:cb:28:a6:cc:37:1e:ba:fe:c2:
                    bf:3b:94:8f:87:a8:f4:81:08:34:0f:22:26:91:87:
                    d5:80:c1:d5:f0:f8:3d:e5:85:e1:97:18:9d:f3:56:
                    af:2b:d9:bc:b1:7c:e2:36:80:b3:e3:3f:82:4d:1a:
                    fb:b9:8d:9e:30:30:bc:9b:ca:35:72:20:05:c2:99:
                    a7:b4:a6:a6:42:88:6f:89:ec:4c:c9:03:cf:6d:2a:
                    dc:ce:9a:57:50:8e:26:5c:19:a6:26:b4:b7:cd:ea:
                    bd:68:71:9d:86:f9:e8:4b:fa:10:74:f8:de:bb:7f:
                    79:39:9c:c5:23:71:3a:66:7a:7a:f3:83:1e:57:d7:
                    59:f0:7b:25:6f:1a:6b:7a:93:7b:42:55:5a:41:5f:
                    04:62:e3:b1:a5:4e:9c:a7:ac:7c:31:87:e9:00:5f:
                    05:a3:87:57:7c:41:1f:5d:02:36:9f:43:94:af:f1:
                    af:e3
                Exponent: 65537 (0x10001)
        X509v3 extensions:
            X509v3 Key Usage: 
                Digital Signature, Key Encipherment
            X509v3 Basic Constraints: 
                CA:FALSE
            Netscape Cert Type: 
                SSL Server
            Netscape Comment: 
                OpenSSL Generated Server Certificate
            X509v3 Subject Key Identifier: 
                61:F7:8C:CC:E9:ED:8B:7D:F5:DC:28:71:7A:06:D4:83:B5:90:F1:46
            X509v3 Authority Key Identifier: 
                keyid:F4:A7:C0:CC:91:46:AF:64:F3:91:F2:27:F8:C8:B2:6F:8A:87:32:73
                DirName:/C=DE/ST=Hessen/O=privacyidea/CN=CA001
                serial:FB:C8:EB:AC:83:CD:12:07

            X509v3 Extended Key Usage: 
                TLS Web Server Authentication
    Signature Algorithm: sha256WithRSAEncryption
         c0:4a:cb:81:2c:fe:7a:1b:8d:7d:c6:ed:f2:00:5e:98:0c:0b:
         51:f6:b7:f3:af:62:92:f2:c4:c3:92:00:37:2f:3a:ad:18:66:
         3f:c4:08:69:8c:bd:ee:7e:b6:7f:1a:bc:81:87:22:bd:c1:ef:
         04:7e:e1:7b:61:0e:e9:39:ea:b9:40:c6:3e:45:e3:dd:2b:43:
         47:8f:3c:18:cb:af:f4:d4:04:fc:ca:1e:16:69:78:d6:f0:ea:
         5e:cb:94:24:94:1d:dd:bf:49:23:e1:e7:25:42:64:46:3f:70:
         57:1b:02:4e:91:20:6e:0e:25:95:eb:87:d2:3e:e5:d4:11:a7:
         15:01:04:60:8c:5c:da:e4:75:03:c8:53:c3:19:83:b7:fc:1c:
         b7:66:db:c8:c6:98:0d:ec:40:c8:1c:c8:ed:f0:87:e6:79:30:
         c6:55:d3:f0:25:e1:ff:03:84:05:fe:ae:b2:d1:d2:97:60:bb:
         63:12:f9:c2:83:84:ce:33:91:91:c4:f9:e3:a9:bb:8d:b7:53:
         bc:f1:05:ad:6e:9c:17:d3:a6:95:23:30:b3:9c:84:f3:d3:3f:
         87:a0:24:f5:aa:a8:dc:b5:83:82:ca:c6:8b:55:fa:61:fe:d8:
         ba:84:c6:d1:82:06:c2:f4:35:85:43:e8:e3:15:5e:9b:06:c7:
         29:4a:b6:01
-----BEGIN CERTIFICATE-----
MIIEIjCCAwqgAwIBAgIEEAAA1jANBgkqhkiG9w0BAQsFADBEMQswCQYDVQQGEwJE
RTEPMA0GA1UECAwGSGVzc2VuMRQwEgYDVQQKDAtwcml2YWN5aWRlYTEOMAwGA1UE
AwwFQ0EwMDEwHhcNMjQwMTAzMTAzMTU4WhcNMjUwMTAyMTAzMTU4WjBQMQ8wDQYD
VQQLDAZyZWFsbTExEjAQBgNVBAMMCWNvcm5lbGl1czEpMCcGCSqGSIb3DQEJARYa
dXNlckBsb2NhbGhvc3QubG9jYWxkb21haW4wggEiMA0GCSqGSIb3DQEBAQUAA4IB
DwAwggEKAoIBAQCh5urk6PgLcg5PFc0LM1eH0aFz/8/FlNK3Kixkh9F2CnXVIofM
s7oQi5yJwoLIeNVQt1PqPhmx82eGrZYPgGQGi0EeFSyqgNB7Z0r/xpGaaMsopsw3
Hrr+wr87lI+HqPSBCDQPIiaRh9WAwdXw+D3lheGXGJ3zVq8r2byxfOI2gLPjP4JN
Gvu5jZ4wMLybyjVyIAXCmae0pqZCiG+J7EzJA89tKtzOmldQjiZcGaYmtLfN6r1o
cZ2G+ehL+hB0+N67f3k5nMUjcTpmenrzgx5X11nweyVvGmt6k3tCVVpBXwRi47Gl
TpynrHwxh+kAXwWjh1d8QR9dAjafQ5Sv8a/jAgMBAAGjggEOMIIBCjALBgNVHQ8E
BAMCBaAwCQYDVR0TBAIwADARBglghkgBhvhCAQEEBAMCBkAwMwYJYIZIAYb4QgEN
BCYWJE9wZW5TU0wgR2VuZXJhdGVkIFNlcnZlciBDZXJ0aWZpY2F0ZTAdBgNVHQ4E
FgQUYfeMzOnti3313ChxegbUg7WQ8UYwdAYDVR0jBG0wa4AU9KfAzJFGr2TzkfIn
+Miyb4qHMnOhSKRGMEQxCzAJBgNVBAYTAkRFMQ8wDQYDVQQIDAZIZXNzZW4xFDAS
BgNVBAoMC3ByaXZhY3lpZGVhMQ4wDAYDVQQDDAVDQTAwMYIJAPvI66yDzRIHMBMG
A1UdJQQMMAoGCCsGAQUFBwMBMA0GCSqGSIb3DQEBCwUAA4IBAQDASsuBLP56G419
xu3yAF6YDAtR9rfzr2KS8sTDkgA3LzqtGGY/xAhpjL3ufrZ/GryBhyK9we8EfuF7
YQ7pOeq5QMY+RePdK0NHjzwYy6/01AT8yh4WaXjW8Opey5QklB3dv0kj4eclQmRG
P3BXGwJOkSBuDiWV64fSPuXUEacVAQRgjFza5HUDyFPDGYO3/By3ZtvIxpgN7EDI
HMjt8IfmeTDGVdPwJeH/A4QF/q6y0dKXYLtjEvnCg4TOM5GRxPnjqbuNt1O88QWt
bpwX06aVIzCznITz0z+HoCT1qqjctYOCysaLVfph/ti6hMbRggbC9DWFQ+jjFV6b
BscpSrYB
-----END CERTIFICATE-----
